; ModuleID = '15/1342.c'
source_filename = "15/1342.c"
target datalayout = "e-m:e-p270:32:32-p271:32:32-p272:64:64-i64:64-f80:128-n8:16:32:64-S128"
target triple = "x86_64-pc-linux-gnu"

@.str = private unnamed_addr constant [3 x i8] c"%d\00", align 1

; Function Attrs: noinline nounwind uwtable
define dso_local i32 @main() #0 {
  %1 = alloca i32, align 4
  %2 = alloca i32, align 4
  %3 = alloca i32, align 4
  %4 = alloca i32, align 4
  %5 = alloca i32, align 4
  %6 = alloca i32, align 4
  %7 = alloca i32, align 4
  %8 = alloca i32, align 4
  %9 = alloca i32, align 4
  %10 = alloca [1001 x [1001 x i32]], align 16
  store i32 0, i32* %1, align 4
  store i32 0, i32* %5, align 4
  store i32 0, i32* %6, align 4
  store i32 0, i32* %7, align 4
  store i32 0, i32* %8, align 4
  %11 = call i32 (i8*, ...) @__isoc99_scanf(i8* getelementptr inbounds ([3 x i8], [3 x i8]* @.str, i64 0, i64 0), i32* %2)
  store i32 0, i32* %3, align 4
  br label %12

12:                                               ; preds = %33, %0
  %13 = load i32, i32* %3, align 4
  %14 = load i32, i32* %2, align 4
  %15 = icmp slt i32 %13, %14
  br i1 %15, label %16, label %36

16:                                               ; preds = %12
  store i32 0, i32* %4, align 4
  br label %17

17:                                               ; preds = %29, %16
  %18 = load i32, i32* %4, align 4
  %19 = load i32, i32* %2, align 4
  %20 = icmp slt i32 %18, %19
  br i1 %20, label %21, label %32

21:                                               ; preds = %17
  %22 = load i32, i32* %3, align 4
  %23 = sext i32 %22 to i64
  %24 = getelementptr inbounds [1001 x [1001 x i32]], [1001 x [1001 x i32]]* %10, i64 0, i64 %23
  %25 = load i32, i32* %4, align 4
  %26 = sext i32 %25 to i64
  %27 = getelementptr inbounds [1001 x i32], [1001 x i32]* %24, i64 0, i64 %26
  %28 = call i32 (i8*, ...) @__isoc99_scanf(i8* getelementptr inbounds ([3 x i8], [3 x i8]* @.str, i64 0, i64 0), i32* %27)
  br label %29

29:                                               ; preds = %21
  %30 = load i32, i32* %4, align 4
  %31 = add nsw i32 %30, 1
  store i32 %31, i32* %4, align 4
  br label %17

32:                                               ; preds = %17
  br label %33

33:                                               ; preds = %32
  %34 = load i32, i32* %3, align 4
  %35 = add nsw i32 %34, 1
  store i32 %35, i32* %3, align 4
  br label %12

36:                                               ; preds = %12
  store i32 0, i32* %3, align 4
  br label %37

37:                                               ; preds = %136, %36
  %38 = load i32, i32* %3, align 4
  %39 = load i32, i32* %2, align 4
  %40 = icmp slt i32 %38, %39
  br i1 %40, label %41, label %139

41:                                               ; preds = %37
  store i32 0, i32* %4, align 4
  br label %42

42:                                               ; preds = %132, %41
  %43 = load i32, i32* %4, align 4
  %44 = load i32, i32* %2, align 4
  %45 = icmp slt i32 %43, %44
  br i1 %45, label %46, label %135

46:                                               ; preds = %42
  %47 = load i32, i32* %3, align 4
  %48 = sext i32 %47 to i64
  %49 = getelementptr inbounds [1001 x [1001 x i32]], [1001 x [1001 x i32]]* %10, i64 0, i64 %48
  %50 = load i32, i32* %4, align 4
  %51 = sub nsw i32 %50, 1
  %52 = sext i32 %51 to i64
  %53 = getelementptr inbounds [1001 x i32], [1001 x i32]* %49, i64 0, i64 %52
  %54 = load i32, i32* %53, align 4
  %55 = icmp ne i32 %54, 0
  br i1 %55, label %56, label %88

56:                                               ; preds = %46
  %57 = load i32, i32* %3, align 4
  %58 = sub nsw i32 %57, 1
  %59 = sext i32 %58 to i64
  %60 = getelementptr inbounds [1001 x [1001 x i32]], [1001 x [1001 x i32]]* %10, i64 0, i64 %59
  %61 = load i32, i32* %4, align 4
  %62 = sext i32 %61 to i64
  %63 = getelementptr inbounds [1001 x i32], [1001 x i32]* %60, i64 0, i64 %62
  %64 = load i32, i32* %63, align 4
  %65 = icmp ne i32 %64, 0
  br i1 %65, label %66, label %88

66:                                               ; preds = %56
  %67 = load i32, i32* %3, align 4
  %68 = sext i32 %67 to i64
  %69 = getelementptr inbounds [1001 x [1001 x i32]], [1001 x [1001 x i32]]* %10, i64 0, i64 %68
  %70 = load i32, i32* %4, align 4
  %71 = add nsw i32 %70, 1
  %72 = sext i32 %71 to i64
  %73 = getelementptr inbounds [1001 x i32], [1001 x i32]* %69, i64 0, i64 %72
  %74 = load i32, i32* %73, align 4
  %75 = icmp eq i32 %74, 0
  br i1 %75, label %76, label %88

76:                                               ; preds = %66
  %77 = load i32, i32* %3, align 4
  %78 = sext i32 %77 to i64
  %79 = getelementptr inbounds [1001 x [1001 x i32]], [1001 x [1001 x i32]]* %10, i64 0, i64 %78
  %80 = load i32, i32* %4, align 4
  %81 = sext i32 %80 to i64
  %82 = getelementptr inbounds [1001 x i32], [1001 x i32]* %79, i64 0, i64 %81
  %83 = load i32, i32* %82, align 4
  %84 = icmp eq i32 %83, 0
  br i1 %84, label %85, label %88

85:                                               ; preds = %76
  %86 = load i32, i32* %3, align 4
  store i32 %86, i32* %5, align 4
  %87 = load i32, i32* %4, align 4
  store i32 %87, i32* %7, align 4
  br label %131

88:                                               ; preds = %76, %66, %56, %46
  %89 = load i32, i32* %3, align 4
  %90 = sext i32 %89 to i64
  %91 = getelementptr inbounds [1001 x [1001 x i32]], [1001 x [1001 x i32]]* %10, i64 0, i64 %90
  %92 = load i32, i32* %4, align 4
  %93 = sub nsw i32 %92, 1
  %94 = sext i32 %93 to i64
  %95 = getelementptr inbounds [1001 x i32], [1001 x i32]* %91, i64 0, i64 %94
  %96 = load i32, i32* %95, align 4
  %97 = icmp eq i32 %96, 0
  br i1 %97, label %98, label %130

98:                                               ; preds = %88
  %99 = load i32, i32* %3, align 4
  %100 = add nsw i32 %99, 1
  %101 = sext i32 %100 to i64
  %102 = getelementptr inbounds [1001 x [1001 x i32]], [1001 x [1001 x i32]]* %10, i64 0, i64 %101
  %103 = load i32, i32* %4, align 4
  %104 = sext i32 %103 to i64
  %105 = getelementptr inbounds [1001 x i32], [1001 x i32]* %102, i64 0, i64 %104
  %106 = load i32, i32* %105, align 4
  %107 = icmp ne i32 %106, 0
  br i1 %107, label %108, label %130

108:                                              ; preds = %98
  %109 = load i32, i32* %3, align 4
  %110 = sext i32 %109 to i64
  %111 = getelementptr inbounds [1001 x [1001 x i32]], [1001 x [1001 x i32]]* %10, i64 0, i64 %110
  %112 = load i32, i32* %4, align 4
  %113 = add nsw i32 %112, 1
  %114 = sext i32 %113 to i64
  %115 = getelementptr inbounds [1001 x i32], [1001 x i32]* %111, i64 0, i64 %114
  %116 = load i32, i32* %115, align 4
  %117 = icmp ne i32 %116, 0
  br i1 %117, label %118, label %130

118:                                              ; preds = %108
  %119 = load i32, i32* %3, align 4
  %120 = sext i32 %119 to i64
  %121 = getelementptr inbounds [1001 x [1001 x i32]], [1001 x [1001 x i32]]* %10, i64 0, i64 %120
  %122 = load i32, i32* %4, align 4
  %123 = sext i32 %122 to i64
  %124 = getelementptr inbounds [1001 x i32], [1001 x i32]* %121, i64 0, i64 %123
  %125 = load i32, i32* %124, align 4
  %126 = icmp eq i32 %125, 0
  br i1 %126, label %127, label %130

127:                                              ; preds = %118
  %128 = load i32, i32* %3, align 4
  store i32 %128, i32* %6, align 4
  %129 = load i32, i32* %4, align 4
  store i32 %129, i32* %8, align 4
  br label %130

130:                                              ; preds = %127, %118, %108, %98, %88
  br label %131

131:                                              ; preds = %130, %85
  br label %132

132:                                              ; preds = %131
  %133 = load i32, i32* %4, align 4
  %134 = add nsw i32 %133, 1
  store i32 %134, i32* %4, align 4
  br label %42

135:                                              ; preds = %42
  br label %136

136:                                              ; preds = %135
  %137 = load i32, i32* %3, align 4
  %138 = add nsw i32 %137, 1
  store i32 %138, i32* %3, align 4
  br label %37

139:                                              ; preds = %37
  %140 = load i32, i32* %6, align 4
  %141 = load i32, i32* %5, align 4
  %142 = sub nsw i32 %140, %141
  %143 = sub nsw i32 %142, 1
  %144 = load i32, i32* %8, align 4
  %145 = load i32, i32* %7, align 4
  %146 = sub nsw i32 %144, %145
  %147 = sub nsw i32 %146, 1
  %148 = mul nsw i32 %143, %147
  store i32 %148, i32* %9, align 4
  %149 = load i32, i32* %9, align 4
  %150 = call i32 (i8*, ...) @printf(i8* getelementptr inbounds ([3 x i8], [3 x i8]* @.str, i64 0, i64 0), i32 %149)
  ret i32 0
}

declare dso_local i32 @__isoc99_scanf(i8*, ...) #1

declare dso_local i32 @printf(i8*, ...) #1


!llvm.module.flags = !{!0}
!llvm.ident = !{!1}

!0 = !{i32 1, !"wchar_size", i32 4}
!1 = !{!"clang version 10.0.0-4ubuntu1 "}
